target datalayout = "e-m:e-p270:32:32-p271:32:32-p272:64:64-i64:64-i128:128-f80:128-n8:16:32:64-S128"
target triple = "x86_64-pc-linux-gnu"

%union.YYSTYPE = type { ptr }
%"struct.gmx::SelectionLocation" = type { i32, i32 }
%struct._gmx_sel_yypstate = type { i32, i32, i32, [200 x i16], ptr, ptr, [200 x %union.YYSTYPE], ptr, ptr, [200 x %"struct.gmx::SelectionLocation"], ptr, ptr, [3 x %"struct.gmx::SelectionLocation"], i64, i32 }

; Function Attrs: mustprogress nounwind uwtable
define void @_Z24_gmx_sel_yypstate_deleteP17_gmx_sel_yypstate(ptr noundef %0) #0 {
  %2 = alloca ptr, align 8
  store ptr %0, ptr %2, align 8
  %3 = load ptr, ptr %2, align 8
  %4 = getelementptr inbounds %struct._gmx_sel_yypstate, ptr %3, i32 0, i32 14
  %5 = load i32, ptr %4, align 8
  %6 = icmp ne i32 %5, 0
  br i1 %6, label %19, label %7

7:                                                ; preds = %1
  %8 = load ptr, ptr %2, align 8
  %9 = getelementptr inbounds %struct._gmx_sel_yypstate, ptr %8, i32 0, i32 4
  %10 = load ptr, ptr %9, align 8
  %11 = load ptr, ptr %2, align 8
  %12 = getelementptr inbounds %struct._gmx_sel_yypstate, ptr %11, i32 0, i32 3
  %13 = getelementptr inbounds [200 x i16], ptr %12, i64 0, i64 0
  %14 = icmp ne ptr %10, %13
  br i1 %14, label %15, label %19

15:                                               ; preds = %7
  %16 = load ptr, ptr %2, align 8
  %17 = getelementptr inbounds %struct._gmx_sel_yypstate, ptr %16, i32 0, i32 4
  %18 = load ptr, ptr %17, align 8
  call void @free(ptr noundef %18) #14
  br label %19

19:                                               ; preds = %15, %7, %1
  %20 = load ptr, ptr %2, align 8
  call void @free(ptr noundef %20) #14
  ret void
}