; Function Attrs: mustprogress nounwind willreturn uwtable
define void @_Z24_gmx_sel_yypstate_deleteP17_gmx_sel_yypstate(ptr noundef %0) local_unnamed_addr #2 {
  %2 = getelementptr inbounds i8, ptr %0, i64 3696
  %3 = load i32, ptr %2, align 8
  %.not = icmp eq i32 %3, 0
  br i1 %.not, label %4, label %9

4:                                                ; preds = %1
  %5 = getelementptr inbounds i8, ptr %0, i64 416
  %6 = load ptr, ptr %5, align 8
  %7 = getelementptr inbounds i8, ptr %0, i64 12
  %.not5 = icmp eq ptr %6, %7
  br i1 %.not5, label %9, label %8

8:                                                ; preds = %4
  tail call void @free(ptr noundef %6) #21
  br label %9

9:                                                ; preds = %8, %4, %1
  tail call void @free(ptr noundef nonnull %0) #21
  ret void
}